Certificate:
    Data:
        Version: 3 (0x2)
        Serial Number: 4096 (0x1000)
    Signature Algorithm: sha256WithRSAEncryption
        Issuer: CN=leaf
        Validity
            Not Before: Jan 31 12:12:27 2023 GMT
            Not After : Jan 23 12:12:27 2053 GMT
        Subject: CN=mysql-leaf-signed-cert
        Subject Public Key Info:
            Public Key Algorithm: rsaEncryption
                RSA Public-Key: (2048 bit)
                Modulus:
                    00:df:bf:5d:61:2a:49:02:52:89:5a:0a:4a:e9:f1:
                    e7:bb:3c:c7:99:8a:97:f1:ef:4f:da:0a:f1:35:38:
                    92:34:95:35:bb:b0:9a:73:83:fb:c9:ab:77:33:7b:
                    28:03:0f:a9:d2:e0:78:4d:0a:5a:5e:9b:0d:ae:88:
                    77:e1:bd:34:8f:5d:f7:69:7b:7d:bc:17:78:b3:97:
                    bc:6f:83:ba:cb:97:e5:53:87:a1:4e:8c:f6:a1:a2:
                    15:52:d1:c8:b7:bb:8a:56:8a:e8:59:5e:13:a3:b9:
                    83:17:59:30:ac:5b:13:21:2e:28:b8:b6:16:28:ae:
                    8e:3b:00:df:86:ab:12:2b:68:7c:98:ef:65:d6:b1:
                    22:d1:42:3e:61:d9:03:79:a7:c0:b8:8d:2e:75:15:
                    9a:b1:af:4a:8d:9f:05:cc:b3:9a:72:b1:08:6c:b3:
                    d0:d2:75:c6:1b:6d:10:0d:56:3a:ea:72:e6:52:db:
                    da:76:f6:d1:f7:19:c8:97:57:75:a3:50:f8:53:60:
                    21:9e:27:17:62:85:df:55:7b:77:39:f4:d3:f8:01:
                    4e:be:90:9a:35:e7:72:8d:6a:bb:a6:4a:1d:f8:f8:
                    16:49:15:74:be:0b:e1:a6:ac:84:cb:be:a8:11:dd:
                    d7:c6:5c:78:4c:75:a6:b7:5b:0d:bd:88:31:91:16:
                    0f:6d
                Exponent: 65537 (0x10001)
        X509v3 extensions:
            X509v3 Basic Constraints: 
                CA:FALSE
    Signature Algorithm: sha256WithRSAEncryption
         d5:6d:12:a8:45:2d:9e:47:f0:ef:0d:05:0b:0d:97:de:a5:3d:
         a5:54:45:fc:9d:b6:c5:06:52:e6:56:d3:50:10:1b:0a:0e:e5:
         63:71:f3:9d:1a:c2:e0:36:c7:d0:94:ea:3a:ea:b1:b0:74:92:
         14:df:88:44:77:86:fa:31:3c:f6:b2:55:34:78:83:c0:b5:13:
         d0:9b:35:0c:56:1f:a7:73:e6:7e:f5:21:12:9d:db:91:ef:a9:
         34:a4:31:08:ed:91:8b:f0:8e:a2:78:cc:8f:1e:09:da:89:d3:
         8b:7f:d1:76:cd:a7:7a:b3:ce:35:a5:37:83:94:8b:a9:85:60:
         da:8e:22:86:01:dd:cf:fa:2e:dd:29:2f:a1:f1:42:e6:b0:ff:
         9e:60:0e:20:25:7e:0e:d4:f9:7e:57:4f:5e:8c:2e:13:47:4d:
         48:b4:73:6e:d4:38:ff:25:93:fc:7f:4a:a0:17:fd:7f:ae:6c:
         8f:3f:6c:02:e1:10:2f:20:08:9c:ef:d1:2d:37:1f:99:a2:7e:
         5d:a4:aa:27:79:9e:73:ca:cc:20:8e:c1:49:4e:f3:e9:01:e6:
         27:a1:c4:cf:d0:0d:42:41:5e:94:6d:3a:72:33:f0:3d:b0:87:
         71:a7:20:d0:1c:b8:81:d3:8a:b8:7c:36:69:c0:90:e9:a3:1b:
         ef:d3:0c:f6
-----BEGIN CERTIFICATE-----
MIICuzCCAaOgAwIBAgICEAAwDQYJKoZIhvcNAQELBQAwDzENMAsGA1UEAwwEbGVh
ZjAgFw0yMzAxMzExMjEyMjdaGA8yMDUzMDEyMzEyMTIyN1owITEfMB0GA1UEAwwW
bXlzcWwtbGVhZi1zaWduZWQtY2VydDCCASIwDQYJKoZIhvcNAQEBBQADggEPADCC
AQoCggEBAN+/XWEqSQJSiVoKSunx57s8x5mKl/HvT9oK8TU4kjSVNbuwmnOD+8mr
dzN7KAMPqdLgeE0KWl6bDa6Id+G9NI9d92l7fbwXeLOXvG+DusuX5VOHoU6M9qGi
FVLRyLe7ilaK6FleE6O5gxdZMKxbEyEuKLi2FiiujjsA34arEitofJjvZdaxItFC
PmHZA3mnwLiNLnUVmrGvSo2fBcyzmnKxCGyz0NJ1xhttEA1WOupy5lLb2nb20fcZ
yJdXdaNQ+FNgIZ4nF2KF31V7dzn00/gBTr6QmjXnco1qu6ZKHfj4FkkVdL4L4aas
hMu+qBHd18ZceEx1prdbDb2IMZEWD20CAwEAAaMNMAswCQYDVR0TBAIwADANBgkq
hkiG9w0BAQsFAAOCAQEA1W0SqEUtnkfw7w0FCw2X3qU9pVRF/J22xQZS5lbTUBAb
Cg7lY3HznRrC4DbH0JTqOuqxsHSSFN+IRHeG+jE89rJVNHiDwLUT0Js1DFYfp3Pm
fvUhEp3bke+pNKQxCO2Ri/COonjMjx4J2onTi3/Rds2nerPONaU3g5SLqYVg2o4i
hgHdz/ou3SkvofFC5rD/nmAOICV+DtT5fldPXowuE0dNSLRzbtQ4/yWT/H9KoBf9
f65sjz9sAuEQLyAInO/RLTcfmaJ+XaSqJ3mec8rMII7BSU7z6QHmJ6HEz9ANQkFe
lG06cjPwPbCHcacg0By4gdOKuHw2acCQ6aMb79MM9g==
-----END CERTIFICATE-----
